; Function Attrs: nounwind uwtable
define i32 @ossl_chacha20_dinit(ptr noundef %0, ptr noundef %1, i64 noundef %2, ptr noundef %3, i64 noundef %4, ptr noundef %5) #0 {
  %7 = tail call i32 @ossl_cipher_generic_dinit(ptr noundef %0, ptr noundef %1, i64 noundef %2, ptr noundef %3, i64 noundef %4, ptr noundef null) #4
  %8 = icmp ne i32 %7, 0
  %9 = icmp ne ptr %3, null
  %or.cond = and i1 %9, %8
  br i1 %or.cond, label %.thread, label %15

.thread:                                          ; preds = %6
  %10 = getelementptr inbounds nuw i8, ptr %0, i64 168
  %11 = load ptr, ptr %10, align 8, !tbaa !3
  %12 = getelementptr inbounds nuw i8, ptr %11, i64 24
  %13 = load ptr, ptr %12, align 8, !tbaa !13
  %14 = tail call i32 %13(ptr noundef %0) #4
  br label %16

15:                                               ; preds = %6
  br i1 %8, label %16, label %18

16:                                               ; preds = %.thread, %15
  %17 = tail call i32 @chacha20_set_ctx_params(ptr poison, ptr noundef %5)
  %.not = icmp eq i32 %17, 0
  %spec.select = select i1 %.not, i32 0, i32 %7
  br label %18

18:                                               ; preds = %16, %15
  %.0 = phi i32 [ 0, %15 ], [ %spec.select, %16 ]
  ret i32 %.0
}